Certificate:
    Data:
        Version: 3 (0x2)
        Serial Number: 44 (0x2c)
        Signature Algorithm: sha256WithRSAEncryption
        Issuer: C=IL, O=StartCom Ltd., OU=Secure Digital Certificate Signing, CN=StartCom Certification Authority
        Validity
            Not Before: Jun  1 00:01:01 2010 GMT
            Not After : May 31 23:59:59 2020 GMT
        Subject: C=US, ST=Massachusetts, O=The City of Osmio, Inc., CN=StartCom Class 1 Intermediate CA - The City of Osmio
        Subject Public Key Info:
            Public Key Algorithm: rsaEncryption
            RSA Public Key: (2048 bit)
                Modulus (2048 bit):
                    00:e2:97:ca:f1:8b:d2:12:a1:a6:cf:1e:8c:21:ab:
                    10:b5:f3:c1:fa:9a:5b:13:1c:1c:0e:61:8b:5f:41:
                    f5:10:33:96:19:5b:35:cc:ee:58:d9:bf:b6:a8:d1:
                    07:8c:2d:8d:4b:8a:9b:4d:c1:84:ec:30:4b:ca:9e:
                    89:36:19:fb:ad:ac:ee:b0:0b:dd:75:cf:71:8d:c8:
                    c7:c4:0e:aa:9c:b4:f8:37:e7:39:e1:56:6c:1f:25:
                    d7:91:3a:12:f3:a4:b1:2c:c9:1e:25:c6:dc:e7:61:
                    19:e3:ea:36:ed:b7:da:fd:a0:b7:51:f0:c5:f2:17:
                    63:72:41:b1:c0:93:0c:68:0f:d8:b3:62:87:44:16:
                    22:f9:71:63:87:52:a5:cc:49:ce:93:be:de:76:f9:
                    ff:21:af:e9:11:3b:7b:82:ca:5b:7f:43:50:cc:e6:
                    e4:a3:88:ce:f5:da:c7:73:64:9a:de:32:af:df:51:
                    e9:7d:78:dc:96:7d:97:74:04:4b:b6:bc:f1:d2:dc:
                    52:9d:b5:53:f0:49:c7:fd:3d:dc:52:21:9f:ee:de:
                    8a:18:d3:64:c2:d2:50:f2:a6:33:51:69:da:cb:0f:
                    85:a0:85:e4:5d:8d:54:de:01:c2:87:4c:bf:45:7e:
                    67:ee:b4:7e:db:7b:31:1d:b4:97:e5:04:42:a0:d8:
                    bb:73
                Exponent: 65537 (0x10001)
        X509v3 extensions:
            X509v3 Basic Constraints: critical
                CA:TRUE
            X509v3 Key Usage: critical
                Certificate Sign, CRL Sign
            X509v3 Subject Key Identifier: 
                F0:9F:F0:F8:E3:84:24:26:2D:49:DB:D8:88:46:A9:DE:12:DB:D6:34
            X509v3 Authority Key Identifier: 
                keyid:4E:0B:EF:1A:A4:40:5B:A5:17:69:87:30:CA:34:68:43:D0:41:AE:F2

            Authority Information Access: 
                OCSP - URI:http://ocsp.startssl.com/ca
                CA Issuers - URI:http://www.startssl.com/sfsca.crt

            X509v3 CRL Distribution Points: 
                URI:http://www.startssl.com/sfsca.crl
                URI:http://crl.startssl.com/sfsca.crl

            X509v3 Certificate Policies: 
                Policy: any_policy_id
                  CPS: http://www.startssl.com/policy.pdf
                  CPS: http://www.startssl.com/intermediate.pdf

    Signature Algorithm: sha256WithRSAEncryption
        76:a2:bb:0d:ff:8e:98:73:d8:a3:b4:ea:f7:83:7d:12:6e:7c:
        c0:d5:f4:c6:20:9b:39:f8:1b:c3:18:e0:6b:d0:25:db:62:a7:
        38:38:1d:1a:40:f3:d2:99:ef:4f:dd:41:9c:12:c8:77:43:95:
        52:17:3a:2d:f8:72:f4:de:46:a3:50:37:3c:0d:6b:9a:7f:47:
        36:7b:23:e6:b5:d3:6e:39:20:1d:e8:bf:5b:ff:fe:a5:ea:c2:
        3c:4f:0e:56:e1:88:f7:d8:06:68:8d:44:da:f9:c2:d1:b7:5e:
        09:08:cf:6e:23:3e:80:be:f1:be:75:8f:c3:ff:82:f8:82:e3:
        87:a2:46:9c:bc:00:2e:56:80:5a:c3:cf:63:a8:b7:b4:7b:9c:
        71:27:e0:cf:aa:27:33:d5:24:98:9f:1d:93:24:2f:16:bf:8d:
        64:b4:64:e0:4c:4c:7e:4d:f1:84:81:f6:66:d7:73:d1:3f:39:
        ee:4a:62:bb:4d:88:a8:d4:c6:0e:a4:5a:6f:a3:66:9e:2a:aa:
        82:6b:a2:a8:e4:ec:70:c9:f3:0d:8a:e4:06:89:cf:ca:73:b6:
        82:76:e7:80:9a:b9:ed:f3:c1:cb:c7:bc:50:c8:6b:40:77:19:
        20:1f:c5:1f:20:56:2a:ff:2a:5b:c3:81:82:18:87:43:7a:4e:
        a5:43:db:65:13:c6:34:6f:ff:e4:d5:1b:00:0e:21:79:04:98:
        9d:7a:77:32:52:fb:7f:1b:de:54:9c:64:1d:80:40:cf:ee:d2:
        62:3c:fe:13:50:ad:18:fe:aa:f8:84:a6:d7:a5:10:9c:4a:1a:
        3f:ce:32:1a:59:22:71:ab:9e:e2:82:27:eb:60:11:c1:42:13:
        8c:86:71:c9:32:43:fd:f9:54:18:dc:80:ee:0a:ab:83:5c:fe:
        f3:a4:39:f2:73:73:25:50:ae:6a:43:71:e9:ec:c4:e9:ec:28:
        b5:b3:eb:ec:48:fb:06:b5:2e:b1:c7:42:33:83:4e:5f:82:c1:
        40:50:d7:d7:ba:de:33:18:05:7f:1d:b9:08:7b:df:3d:a0:71:
        c1:c1:34:f7:a9:6b:54:c4:ea:21:3e:a1:9e:6f:e4:77:5e:99:
        2f:6d:22:b4:c6:64:ed:fe:90:5e:65:13:44:09:a2:84:37:ba:
        36:ef:76:6f:c8:a0:34:d1:e5:bf:c2:4a:a1:0c:7c:47:ed:dc:
        7a:fa:29:8a:e5:ee:e1:6a:0f:4e:2b:92:4d:03:80:cf:e4:0d:
        67:37:48:66:0f:d7:8a:e9:7d:4f:a5:15:f2:45:68:0a:0b:76:
        8e:f8:94:25:d5:8f:54:98:30:e6:1e:61:10:1b:11:4e:8c:65:
        08:ea:57:b1:cb:0f:11:43
-----BEGIN CERTIFICATE-----
MIIGJjCCBA6gAwIBAgIBLDANBgkqhkiG9w0BAQsFADB9MQswCQYDVQQGEwJJTDEW
MBQGA1UEChMNU3RhcnRDb20gTHRkLjErMCkGA1UECxMiU2VjdXJlIERpZ2l0YWwg
Q2VydGlmaWNhdGUgU2lnbmluZzEpMCcGA1UEAxMgU3RhcnRDb20gQ2VydGlmaWNh
dGlvbiBBdXRob3JpdHkwHhcNMTAwNjAxMDAwMTAxWhcNMjAwNTMxMjM1OTU5WjCB
hjELMAkGA1UEBhMCVVMxFjAUBgNVBAgTDU1hc3NhY2h1c2V0dHMxIDAeBgNVBAoT
F1RoZSBDaXR5IG9mIE9zbWlvLCBJbmMuMT0wOwYDVQQDEzRTdGFydENvbSBDbGFz
cyAxIEludGVybWVkaWF0ZSBDQSAtIFRoZSBDaXR5IG9mIE9zbWlvMIIBIjANBgkq
hkiG9w0BAQEFAAOCAQ8AMIIBCgKCAQEA4pfK8YvSEqGmzx6MIasQtfPB+ppbExwc
DmGLX0H1EDOWGVs1zO5Y2b+2qNEHjC2NS4qbTcGE7DBLyp6JNhn7razusAvddc9x
jcjHxA6qnLT4N+c54VZsHyXXkToS86SxLMkeJcbc52EZ4+o27bfa/aC3UfDF8hdj
ckGxwJMMaA/Ys2KHRBYi+XFjh1KlzEnOk77edvn/Ia/pETt7gspbf0NQzObko4jO
9drHc2Sa3jKv31HpfXjcln2XdARLtrzx0txSnbVT8EnH/T3cUiGf7t6KGNNkwtJQ
8qYzUWnayw+FoIXkXY1U3gHCh0y/RX5n7rR+23sxHbSX5QRCoNi7cwIDAQABo4IB
pTCCAaEwDwYDVR0TAQH/BAUwAwEB/zAOBgNVHQ8BAf8EBAMCAQYwHQYDVR0OBBYE
FPCf8PjjhCQmLUnb2IhGqd4S29Y0MB8GA1UdIwQYMBaAFE4L7xqkQFulF2mHMMo0
aEPQQa7yMGYGCCsGAQUFBwEBBFowWDAnBggrBgEFBQcwAYYbaHR0cDovL29jc3Au
c3RhcnRzc2wuY29tL2NhMC0GCCsGAQUFBzAChiFodHRwOi8vd3d3LnN0YXJ0c3Ns
LmNvbS9zZnNjYS5jcnQwWwYDVR0fBFQwUjAnoCWgI4YhaHR0cDovL3d3dy5zdGFy
dHNzbC5jb20vc2ZzY2EuY3JsMCegJaAjhiFodHRwOi8vY3JsLnN0YXJ0c3NsLmNv
bS9zZnNjYS5jcmwweQYDVR0gBHIwcDBuBgRVHSAAMGYwLgYIKwYBBQUHAgEWImh0
dHA6Ly93d3cuc3RhcnRzc2wuY29tL3BvbGljeS5wZGYwNAYIKwYBBQUHAgEWKGh0
dHA6Ly93d3cuc3RhcnRzc2wuY29tL2ludGVybWVkaWF0ZS5wZGYwDQYJKoZIhvcN
AQELBQADggIBAHaiuw3/jphz2KO06veDfRJufMDV9MYgmzn4G8MY4GvQJdtipzg4
HRpA89KZ70/dQZwSyHdDlVIXOi34cvTeRqNQNzwNa5p/RzZ7I+a10245IB3ov1v/
/qXqwjxPDlbhiPfYBmiNRNr5wtG3XgkIz24jPoC+8b51j8P/gviC44eiRpy8AC5W
gFrDz2Oot7R7nHEn4M+qJzPVJJifHZMkLxa/jWS0ZOBMTH5N8YSB9mbXc9E/Oe5K
YrtNiKjUxg6kWm+jZp4qqoJroqjk7HDJ8w2K5AaJz8pztoJ254Caue3zwcvHvFDI
a0B3GSAfxR8gVir/KlvDgYIYh0N6TqVD22UTxjRv/+TVGwAOIXkEmJ16dzJS+38b
3lScZB2AQM/u0mI8/hNQrRj+qviEptelEJxKGj/OMhpZInGrnuKCJ+tgEcFCE4yG
cckyQ/35VBjcgO4Kq4Nc/vOkOfJzcyVQrmpDcensxOnsKLWz6+xI+wa1LrHHQjOD
Tl+CwUBQ19e63jMYBX8duQh73z2gccHBNPepa1TE6iE+oZ5v5HdemS9tIrTGZO3+
kF5lE0QJooQ3ujbvdm/IoDTR5b/CSqEMfEft3Hr6KYrl7uFqD04rkk0DgM/kDWc3
SGYP14rpfU+lFfJFaAoLdo74lCXVj1SYMOYeYRAbEU6MZQjqV7HLDxFD
-----END CERTIFICATE-----
